; ModuleID = 'source-C-CXX/36/234.cpp'
source_filename = "source-C-CXX/36/234.cpp"
target datalayout = "e-m:e-p270:32:32-p271:32:32-p272:64:64-i64:64-f80:128-n8:16:32:64-S128"
target triple = "x86_64-pc-linux-gnu"

%"class.std::ios_base::Init" = type { i8 }
%"class.std::basic_istream" = type { i32 (...)**, i64, %"class.std::basic_ios" }
%"class.std::basic_ios" = type { %"class.std::ios_base", %"class.std::basic_ostream"*, i8, i8, %"class.std::basic_streambuf"*, %"class.std::ctype"*, %"class.std::num_put"*, %"class.std::num_get"* }
%"class.std::ios_base" = type { i32 (...)**, i64, i64, i32, i32, i32, %"struct.std::ios_base::_Callback_list"*, %"struct.std::ios_base::_Words", [8 x %"struct.std::ios_base::_Words"], i32, %"struct.std::ios_base::_Words"*, %"class.std::locale" }
%"struct.std::ios_base::_Callback_list" = type { %"struct.std::ios_base::_Callback_list"*, void (i32, %"class.std::ios_base"*, i32)*, i32, i32 }
%"struct.std::ios_base::_Words" = type { i8*, i64 }
%"class.std::locale" = type { %"class.std::locale::_Impl"* }
%"class.std::locale::_Impl" = type { i32, %"class.std::locale::facet"**, i64, %"class.std::locale::facet"**, i8** }
%"class.std::locale::facet" = type <{ i32 (...)**, i32, [4 x i8] }>
%"class.std::basic_ostream" = type { i32 (...)**, %"class.std::basic_ios" }
%"class.std::basic_streambuf" = type { i32 (...)**, i8*, i8*, i8*, i8*, i8*, i8*, %"class.std::locale" }
%"class.std::ctype" = type <{ %"class.std::locale::facet.base", [4 x i8], %struct.__locale_struct*, i8, [7 x i8], i32*, i32*, i16*, i8, [256 x i8], [256 x i8], i8, [6 x i8] }>
%"class.std::locale::facet.base" = type <{ i32 (...)**, i32 }>
%struct.__locale_struct = type { [13 x %struct.__locale_data*], i16*, i32*, i32*, [13 x i8*] }
%struct.__locale_data = type opaque
%"class.std::num_put" = type { %"class.std::locale::facet.base", [4 x i8] }
%"class.std::num_get" = type { %"class.std::locale::facet.base", [4 x i8] }

@_ZStL8__ioinit = internal global %"class.std::ios_base::Init" zeroinitializer, align 1
@__dso_handle = external hidden global i8
@_ZSt3cin = external global %"class.std::basic_istream", align 8
@_ZSt4cout = external global %"class.std::basic_ostream", align 8
@.str = private unnamed_addr constant [3 x i8] c"no\00", align 1
@llvm.global_ctors = appending global [1 x { i32, void ()*, i8* }] [{ i32, void ()*, i8* } { i32 65535, void ()* @_GLOBAL__sub_I_234.cpp, i8* null }]

declare void @_ZNSt8ios_base4InitC1Ev(%"class.std::ios_base::Init"* nonnull align 1 dereferenceable(1)) unnamed_addr #0

; Function Attrs: nounwind
declare void @_ZNSt8ios_base4InitD1Ev(%"class.std::ios_base::Init"* nonnull align 1 dereferenceable(1)) unnamed_addr #1

; Function Attrs: nofree nounwind
declare i32 @__cxa_atexit(void (i8*)*, i8*, i8*) local_unnamed_addr #2

; Function Attrs: mustprogress norecurse sspstrong uwtable
define dso_local i32 @main() local_unnamed_addr #3 {
  %1 = alloca i8, align 1
  %2 = alloca i32, align 4
  %3 = alloca [100000 x i8], align 16
  %4 = bitcast i32* %2 to i8*
  call void @llvm.lifetime.start.p0i8(i64 4, i8* nonnull %4) #8
  %5 = getelementptr inbounds [100000 x i8], [100000 x i8]* %3, i64 0, i64 0
  call void @llvm.lifetime.start.p0i8(i64 100000, i8* nonnull %5) #8
  %6 = call nonnull align 8 dereferenceable(16) %"class.std::basic_istream"* @_ZNSirsERi(%"class.std::basic_istream"* nonnull align 8 dereferenceable(16) @_ZSt3cin, i32* nonnull align 4 dereferenceable(4) %2)
  %7 = load i32, i32* %2, align 4, !tbaa !5
  %8 = icmp sgt i32 %7, 0
  br i1 %8, label %9, label %134

9:                                                ; preds = %0, %128
  %10 = phi i32 [ %131, %128 ], [ 0, %0 ]
  call void @_ZSt17__istream_extractRSiPcl(%"class.std::basic_istream"* nonnull align 8 dereferenceable(16) @_ZSt3cin, i8* nonnull %5, i64 100000)
  %11 = call i64 @strlen(i8* noundef nonnull %5) #9
  %12 = trunc i64 %11 to i32
  %13 = icmp sgt i32 %12, 0
  br i1 %13, label %14, label %100

14:                                               ; preds = %9
  %15 = shl i64 %11, 32
  %16 = ashr exact i64 %15, 32
  %17 = and i64 %11, 4294967295
  %18 = add nsw i64 %17, -2
  br label %25

19:                                               ; preds = %45, %136, %25
  %20 = add nuw nsw i64 %27, 1
  %21 = icmp eq i64 %28, %17
  br i1 %21, label %22, label %25, !llvm.loop !9

22:                                               ; preds = %19
  br i1 %13, label %23, label %100

23:                                               ; preds = %22
  %24 = and i64 %11, 4294967295
  br label %64

25:                                               ; preds = %14, %19
  %26 = phi i64 [ 0, %14 ], [ %28, %19 ]
  %27 = phi i64 [ 1, %14 ], [ %20, %19 ]
  %28 = add nuw nsw i64 %26, 1
  %29 = getelementptr inbounds [100000 x i8], [100000 x i8]* %3, i64 0, i64 %26
  %30 = icmp slt i64 %28, %16
  br i1 %30, label %31, label %19

31:                                               ; preds = %25
  %32 = xor i64 %26, -1
  %33 = add i64 %11, %32
  %34 = load i8, i8* %29, align 1, !tbaa !11
  %35 = and i64 %33, 1
  %36 = icmp eq i64 %35, 0
  br i1 %36, label %45, label %37

37:                                               ; preds = %31
  %38 = getelementptr inbounds [100000 x i8], [100000 x i8]* %3, i64 0, i64 %27
  %39 = load i8, i8* %38, align 1, !tbaa !11
  %40 = icmp eq i8 %39, %34
  br i1 %40, label %41, label %42

41:                                               ; preds = %37
  store i8 48, i8* %38, align 1, !tbaa !11
  store i8 48, i8* %29, align 1, !tbaa !11
  br label %42

42:                                               ; preds = %41, %37
  %43 = phi i8 [ %34, %37 ], [ 48, %41 ]
  %44 = add nuw nsw i64 %27, 1
  br label %45

45:                                               ; preds = %42, %31
  %46 = phi i8 [ %43, %42 ], [ %34, %31 ]
  %47 = phi i64 [ %44, %42 ], [ %27, %31 ]
  %48 = icmp eq i64 %18, %26
  br i1 %48, label %19, label %49

49:                                               ; preds = %45, %136
  %50 = phi i8 [ %137, %136 ], [ %46, %45 ]
  %51 = phi i64 [ %138, %136 ], [ %47, %45 ]
  %52 = getelementptr inbounds [100000 x i8], [100000 x i8]* %3, i64 0, i64 %51
  %53 = load i8, i8* %52, align 1, !tbaa !11
  %54 = icmp eq i8 %53, %50
  br i1 %54, label %55, label %56

55:                                               ; preds = %49
  store i8 48, i8* %52, align 1, !tbaa !11
  store i8 48, i8* %29, align 1, !tbaa !11
  br label %56

56:                                               ; preds = %49, %55
  %57 = phi i8 [ %50, %49 ], [ 48, %55 ]
  %58 = add nuw nsw i64 %51, 1
  %59 = getelementptr inbounds [100000 x i8], [100000 x i8]* %3, i64 0, i64 %58
  %60 = load i8, i8* %59, align 1, !tbaa !11
  %61 = icmp eq i8 %60, %57
  br i1 %61, label %135, label %136

62:                                               ; preds = %64
  %63 = icmp eq i64 %69, %24
  br i1 %63, label %100, label %64, !llvm.loop !12

64:                                               ; preds = %23, %62
  %65 = phi i64 [ 0, %23 ], [ %69, %62 ]
  %66 = getelementptr inbounds [100000 x i8], [100000 x i8]* %3, i64 0, i64 %65
  %67 = load i8, i8* %66, align 1, !tbaa !11
  %68 = icmp eq i8 %67, 48
  %69 = add nuw nsw i64 %65, 1
  br i1 %68, label %62, label %70

70:                                               ; preds = %64
  call void @llvm.lifetime.start.p0i8(i64 1, i8* nonnull %1)
  store i8 %67, i8* %1, align 1, !tbaa !11
  %71 = call nonnull align 8 dereferenceable(8) %"class.std::basic_ostream"* @_ZSt16__ostream_insertIcSt11char_traitsIcEERSt13basic_ostreamIT_T0_ES6_PKS3_l(%"class.std::basic_ostream"* nonnull align 8 dereferenceable(8) @_ZSt4cout, i8* nonnull %1, i64 1)
  call void @llvm.lifetime.end.p0i8(i64 1, i8* nonnull %1)
  %72 = bitcast %"class.std::basic_ostream"* %71 to i8**
  %73 = load i8*, i8** %72, align 8, !tbaa !13
  %74 = getelementptr i8, i8* %73, i64 -24
  %75 = bitcast i8* %74 to i64*
  %76 = load i64, i64* %75, align 8
  %77 = bitcast %"class.std::basic_ostream"* %71 to i8*
  %78 = add nsw i64 %76, 240
  %79 = getelementptr inbounds i8, i8* %77, i64 %78
  %80 = bitcast i8* %79 to %"class.std::ctype"**
  %81 = load %"class.std::ctype"*, %"class.std::ctype"** %80, align 8, !tbaa !15
  %82 = icmp eq %"class.std::ctype"* %81, null
  br i1 %82, label %83, label %84

83:                                               ; preds = %70
  call void @_ZSt16__throw_bad_castv() #10
  unreachable

84:                                               ; preds = %70
  %85 = getelementptr inbounds %"class.std::ctype", %"class.std::ctype"* %81, i64 0, i32 8
  %86 = load i8, i8* %85, align 8, !tbaa !19
  %87 = icmp eq i8 %86, 0
  br i1 %87, label %91, label %88

88:                                               ; preds = %84
  %89 = getelementptr inbounds %"class.std::ctype", %"class.std::ctype"* %81, i64 0, i32 9, i64 10
  %90 = load i8, i8* %89, align 1, !tbaa !11
  br label %97

91:                                               ; preds = %84
  call void @_ZNKSt5ctypeIcE13_M_widen_initEv(%"class.std::ctype"* nonnull align 8 dereferenceable(570) %81)
  %92 = bitcast %"class.std::ctype"* %81 to i8 (%"class.std::ctype"*, i8)***
  %93 = load i8 (%"class.std::ctype"*, i8)**, i8 (%"class.std::ctype"*, i8)*** %92, align 8, !tbaa !13
  %94 = getelementptr inbounds i8 (%"class.std::ctype"*, i8)*, i8 (%"class.std::ctype"*, i8)** %93, i64 6
  %95 = load i8 (%"class.std::ctype"*, i8)*, i8 (%"class.std::ctype"*, i8)** %94, align 8
  %96 = call signext i8 %95(%"class.std::ctype"* nonnull align 8 dereferenceable(570) %81, i8 signext 10)
  br label %97

97:                                               ; preds = %88, %91
  %98 = phi i8 [ %90, %88 ], [ %96, %91 ]
  %99 = call nonnull align 8 dereferenceable(8) %"class.std::basic_ostream"* @_ZNSo3putEc(%"class.std::basic_ostream"* nonnull align 8 dereferenceable(8) %71, i8 signext %98)
  br label %128

100:                                              ; preds = %62, %9, %22
  %101 = call nonnull align 8 dereferenceable(8) %"class.std::basic_ostream"* @_ZSt16__ostream_insertIcSt11char_traitsIcEERSt13basic_ostreamIT_T0_ES6_PKS3_l(%"class.std::basic_ostream"* nonnull align 8 dereferenceable(8) @_ZSt4cout, i8* nonnull getelementptr inbounds ([3 x i8], [3 x i8]* @.str, i64 0, i64 0), i64 2)
  %102 = load i8*, i8** bitcast (%"class.std::basic_ostream"* @_ZSt4cout to i8**), align 8, !tbaa !13
  %103 = getelementptr i8, i8* %102, i64 -24
  %104 = bitcast i8* %103 to i64*
  %105 = load i64, i64* %104, align 8
  %106 = add nsw i64 %105, 240
  %107 = getelementptr inbounds i8, i8* bitcast (%"class.std::basic_ostream"* @_ZSt4cout to i8*), i64 %106
  %108 = bitcast i8* %107 to %"class.std::ctype"**
  %109 = load %"class.std::ctype"*, %"class.std::ctype"** %108, align 8, !tbaa !15
  %110 = icmp eq %"class.std::ctype"* %109, null
  br i1 %110, label %111, label %112

111:                                              ; preds = %100
  call void @_ZSt16__throw_bad_castv() #10
  unreachable

112:                                              ; preds = %100
  %113 = getelementptr inbounds %"class.std::ctype", %"class.std::ctype"* %109, i64 0, i32 8
  %114 = load i8, i8* %113, align 8, !tbaa !19
  %115 = icmp eq i8 %114, 0
  br i1 %115, label %119, label %116

116:                                              ; preds = %112
  %117 = getelementptr inbounds %"class.std::ctype", %"class.std::ctype"* %109, i64 0, i32 9, i64 10
  %118 = load i8, i8* %117, align 1, !tbaa !11
  br label %125

119:                                              ; preds = %112
  call void @_ZNKSt5ctypeIcE13_M_widen_initEv(%"class.std::ctype"* nonnull align 8 dereferenceable(570) %109)
  %120 = bitcast %"class.std::ctype"* %109 to i8 (%"class.std::ctype"*, i8)***
  %121 = load i8 (%"class.std::ctype"*, i8)**, i8 (%"class.std::ctype"*, i8)*** %120, align 8, !tbaa !13
  %122 = getelementptr inbounds i8 (%"class.std::ctype"*, i8)*, i8 (%"class.std::ctype"*, i8)** %121, i64 6
  %123 = load i8 (%"class.std::ctype"*, i8)*, i8 (%"class.std::ctype"*, i8)** %122, align 8
  %124 = call signext i8 %123(%"class.std::ctype"* nonnull align 8 dereferenceable(570) %109, i8 signext 10)
  br label %125

125:                                              ; preds = %116, %119
  %126 = phi i8 [ %118, %116 ], [ %124, %119 ]
  %127 = call nonnull align 8 dereferenceable(8) %"class.std::basic_ostream"* @_ZNSo3putEc(%"class.std::basic_ostream"* nonnull align 8 dereferenceable(8) @_ZSt4cout, i8 signext %126)
  br label %128

128:                                              ; preds = %97, %125
  %129 = phi %"class.std::basic_ostream"* [ %99, %97 ], [ %127, %125 ]
  %130 = call nonnull align 8 dereferenceable(8) %"class.std::basic_ostream"* @_ZNSo5flushEv(%"class.std::basic_ostream"* nonnull align 8 dereferenceable(8) %129)
  %131 = add nuw nsw i32 %10, 1
  %132 = load i32, i32* %2, align 4, !tbaa !5
  %133 = icmp slt i32 %131, %132
  br i1 %133, label %9, label %134, !llvm.loop !21

134:                                              ; preds = %128, %0
  call void @llvm.lifetime.end.p0i8(i64 100000, i8* nonnull %5) #8
  call void @llvm.lifetime.end.p0i8(i64 4, i8* nonnull %4) #8
  ret i32 0

135:                                              ; preds = %56
  store i8 48, i8* %59, align 1, !tbaa !11
  store i8 48, i8* %29, align 1, !tbaa !11
  br label %136

136:                                              ; preds = %135, %56
  %137 = phi i8 [ %57, %56 ], [ 48, %135 ]
  %138 = add nuw nsw i64 %51, 2
  %139 = icmp eq i64 %138, %17
  br i1 %139, label %19, label %49, !llvm.loop !22
}

; Function Attrs: argmemonly mustprogress nofree nosync nounwind willreturn
declare void @llvm.lifetime.start.p0i8(i64 immarg, i8* nocapture) #4

declare nonnull align 8 dereferenceable(16) %"class.std::basic_istream"* @_ZNSirsERi(%"class.std::basic_istream"* nonnull align 8 dereferenceable(16), i32* nonnull align 4 dereferenceable(4)) local_unnamed_addr #0

; Function Attrs: argmemonly mustprogress nofree nounwind readonly willreturn
declare i64 @strlen(i8* nocapture) local_unnamed_addr #5

; Function Attrs: argmemonly mustprogress nofree nosync nounwind willreturn
declare void @llvm.lifetime.end.p0i8(i64 immarg, i8* nocapture) #4

declare void @_ZSt17__istream_extractRSiPcl(%"class.std::basic_istream"* nonnull align 8 dereferenceable(16), i8*, i64) local_unnamed_addr #0

declare nonnull align 8 dereferenceable(8) %"class.std::basic_ostream"* @_ZSt16__ostream_insertIcSt11char_traitsIcEERSt13basic_ostreamIT_T0_ES6_PKS3_l(%"class.std::basic_ostream"* nonnull align 8 dereferenceable(8), i8*, i64) local_unnamed_addr #0

declare nonnull align 8 dereferenceable(8) %"class.std::basic_ostream"* @_ZNSo3putEc(%"class.std::basic_ostream"* nonnull align 8 dereferenceable(8), i8 signext) local_unnamed_addr #0

declare nonnull align 8 dereferenceable(8) %"class.std::basic_ostream"* @_ZNSo5flushEv(%"class.std::basic_ostream"* nonnull align 8 dereferenceable(8)) local_unnamed_addr #0

; Function Attrs: noreturn
declare void @_ZSt16__throw_bad_castv() local_unnamed_addr #6

declare void @_ZNKSt5ctypeIcE13_M_widen_initEv(%"class.std::ctype"* nonnull align 8 dereferenceable(570)) local_unnamed_addr #0

; Function Attrs: sspstrong uwtable
define internal void @_GLOBAL__sub_I_234.cpp() #7 section ".text.startup" {
  tail call void @_ZNSt8ios_base4InitC1Ev(%"class.std::ios_base::Init"* nonnull align 1 dereferenceable(1) @_ZStL8__ioinit)
  %1 = tail call i32 @__cxa_atexit(void (i8*)* bitcast (void (%"class.std::ios_base::Init"*)* @_ZNSt8ios_base4InitD1Ev to void (i8*)*), i8* getelementptr inbounds (%"class.std::ios_base::Init", %"class.std::ios_base::Init"* @_ZStL8__ioinit, i64 0, i32 0), i8* nonnull @__dso_handle) #8
  ret void
}


!llvm.module.flags = !{!0, !1, !2, !3}
!llvm.ident = !{!4}

!0 = !{i32 1, !"wchar_size", i32 4}
!1 = !{i32 7, !"PIC Level", i32 2}
!2 = !{i32 7, !"PIE Level", i32 2}
!3 = !{i32 7, !"uwtable", i32 1}
!4 = !{!"clang version 13.0.0"}
!5 = !{!6, !6, i64 0}
!6 = !{!"int", !7, i64 0}
!7 = !{!"omnipotent char", !8, i64 0}
!8 = !{!"Simple C++ TBAA"}
!9 = distinct !{!9, !10}
!10 = !{!"llvm.loop.mustprogress"}
!11 = !{!7, !7, i64 0}
!12 = distinct !{!12, !10}
!13 = !{!14, !14, i64 0}
!14 = !{!"vtable pointer", !8, i64 0}
!15 = !{!16, !17, i64 240}
!16 = !{!"_ZTSSt9basic_iosIcSt11char_traitsIcEE", !17, i64 216, !7, i64 224, !18, i64 225, !17, i64 232, !17, i64 240, !17, i64 248, !17, i64 256}
!17 = !{!"any pointer", !7, i64 0}
!18 = !{!"bool", !7, i64 0}
!19 = !{!20, !7, i64 56}
!20 = !{!"_ZTSSt5ctypeIcE", !17, i64 16, !18, i64 24, !17, i64 32, !17, i64 40, !17, i64 48, !7, i64 56, !7, i64 57, !7, i64 313, !7, i64 569}
!21 = distinct !{!21, !10}
!22 = distinct !{!22, !10}
